Certificate:
    Data:
        Version: 3 (0x2)
        Serial Number: 1 (0x1)
        Signature Algorithm: sha256WithRSAEncryption
        Issuer: C=BN, ST=Dhaka, L=Sylhet, O=option, OU=option, CN=example.com/emailAddress=abc@gmail.com
        Validity
            Not Before: Jul  9 22:47:41 2024 GMT
            Not After : Jul  9 22:47:41 2025 GMT
        Subject: C=BN, ST=Dhaka, O=option, OU=option, CN=example.com/emailAddress=abc@gmail.com
        Subject Public Key Info:
            Public Key Algorithm: rsaEncryption
                Public-Key: (1024 bit)
                Modulus:
                    00:d2:7d:d3:33:12:6e:ab:eb:c0:61:de:53:58:d9:
                    27:8a:d4:16:c5:70:36:a1:12:60:32:a8:b7:b2:66:
                    1d:27:83:b6:6f:18:78:07:d8:ee:4e:4b:97:a9:18:
                    a2:80:97:4f:a4:06:7a:75:ce:50:4b:12:8b:37:fd:
                    6a:a3:47:48:29:7b:6f:f7:26:a0:db:e5:86:70:4e:
                    87:98:16:12:1f:e1:c0:6c:df:cc:d5:b1:e3:32:7a:
                    60:f0:9a:0d:05:35:f5:5a:0f:ce:6c:c5:9b:a7:82:
                    d2:17:98:61:f9:30:39:78:4b:73:17:6e:e4:79:09:
                    36:f2:2c:d5:39:c6:aa:7e:cd
                Exponent: 65537 (0x10001)
        X509v3 extensions:
            X509v3 Basic Constraints: 
                CA:FALSE
            X509v3 Subject Key Identifier: 
                A9:B1:46:1B:0D:23:B7:13:F5:3E:DB:A1:74:B6:28:BF:94:64:B2:A3
            X509v3 Authority Key Identifier: 
                43:05:8B:8C:2E:52:1B:A7:A5:E9:9C:58:ED:19:D7:0D:A3:4F:E6:6B
    Signature Algorithm: sha256WithRSAEncryption
    Signature Value:
        4f:34:c2:24:2e:6c:99:87:7d:6d:07:d8:08:0f:cb:95:85:a9:
        18:e9:e6:cc:4f:3a:fc:70:bd:8f:58:2e:8e:2d:f9:d1:79:25:
        3f:56:0b:d5:27:48:1c:3b:d3:1e:b8:d8:ab:34:70:b6:63:5e:
        2a:1e:3f:e0:af:5e:79:32:b3:88:a8:b7:b5:47:60:bd:a4:29:
        61:8a:b9:2f:c6:23:c3:d2:1f:a7:f9:eb:0b:a9:5b:35:e1:82:
        52:71:01:46:16:dc:72:27:00:d5:5e:4c:cd:8f:45:09:1e:5d:
        5f:a6:f5:1b:d3:f1:11:c4:3d:b1:37:5b:6e:d2:04:46:74:45:
        be:ad:ea:db:fc:cb:06:0c:48:e0:ec:89:30:46:7d:0d:c6:3e:
        2b:e5:bf:ee:87:43:6f:28:f2:5b:ea:32:b9:29:18:66:9a:af:
        65:36:44:ff:bf:ff:f9:9c:bb:e7:e2:8c:4a:55:ef:22:b4:1b:
        39:ef:a0:09:93:cd:55:e1:3b:13:e5:36:7a:a0:0a:82:5e:e9:
        bf:7a:07:88:90:2c:7c:41:44:aa:fb:aa:48:48:11:a8:44:da:
        ba:4a:f0:4b:98:d1:4b:50:59:6a:cc:49:1e:88:7a:25:eb:a2:
        39:1f:01:43:d6:59:16:03:a1:fd:ce:3f:2e:a5:e6:36:b0:ed:
        5e:48:63:c0
-----BEGIN CERTIFICATE-----
MIIDPDCCAiSgAwIBAgIBATANBgkqhkiG9w0BAQsFADCBhDELMAkGA1UEBhMCQk4x
DjAMBgNVBAgMBURoYWthMQ8wDQYDVQQHDAZTeWxoZXQxDzANBgNVBAoMBm9wdGlv
bjEPMA0GA1UECwwGb3B0aW9uMRQwEgYDVQQDDAtleGFtcGxlLmNvbTEcMBoGCSqG
SIb3DQEJARYNYWJjQGdtYWlsLmNvbTAeFw0yNDA3MDkyMjQ3NDFaFw0yNTA3MDky
MjQ3NDFaMHMxCzAJBgNVBAYTAkJOMQ4wDAYDVQQIDAVEaGFrYTEPMA0GA1UECgwG
b3B0aW9uMQ8wDQYDVQQLDAZvcHRpb24xFDASBgNVBAMMC2V4YW1wbGUuY29tMRww
GgYJKoZIhvcNAQkBFg1hYmNAZ21haWwuY29tMIGfMA0GCSqGSIb3DQEBAQUAA4GN
ADCBiQKBgQDSfdMzEm6r68Bh3lNY2SeK1BbFcDahEmAyqLeyZh0ng7ZvGHgH2O5O
S5epGKKAl0+kBnp1zlBLEos3/WqjR0gpe2/3JqDb5YZwToeYFhIf4cBs38zVseMy
emDwmg0FNfVaD85sxZungtIXmGH5MDl4S3MXbuR5CTbyLNU5xqp+zQIDAQABo00w
SzAJBgNVHRMEAjAAMB0GA1UdDgQWBBSpsUYbDSO3E/U+26F0tii/lGSyozAfBgNV
HSMEGDAWgBRDBYuMLlIbp6XpnFjtGdcNo0/mazANBgkqhkiG9w0BAQsFAAOCAQEA
TzTCJC5smYd9bQfYCA/LlYWpGOnmzE86/HC9j1guji350XklP1YL1SdIHDvTHrjY
qzRwtmNeKh4/4K9eeTKziKi3tUdgvaQpYYq5L8Yjw9Ifp/nrC6lbNeGCUnEBRhbc
cicA1V5MzY9FCR5dX6b1G9PxEcQ9sTdbbtIERnRFvq3q2/zLBgxI4OyJMEZ9DcY+
K+W/7odDbyjyW+oyuSkYZpqvZTZE/7//+Zy75+KMSlXvIrQbOe+gCZPNVeE7E+U2
eqAKgl7pv3oHiJAsfEFEqvuqSEgRqETaukrwS5jRS1BZasxJHoh6JeuiOR8BQ9ZZ
FgOh/c4/LqXmNrDtXkhjwA==
-----END CERTIFICATE-----
